; Function Attrs: null_pointer_is_valid sspstrong uwtable
define internal i32 @dissect_zbee_tlv_default(ptr noundef %0, ptr noundef %1, ptr noundef %2, ptr noundef %3) #0 {
  %5 = tail call i32 @dissect_zbee_tlvs(ptr noundef %0, ptr noundef %1, ptr noundef %2, i32 noundef 0, ptr noundef %3, i8 noundef zeroext 0, i32 noundef 0)
  %6 = tail call i32 @tvb_captured_length(ptr noundef %0)
  %7 = icmp ult i32 %5, %6
  br i1 %7, label %8, label %11

8:                                                ; preds = %4
  %9 = tail call ptr @tvb_new_subset_remaining(ptr noundef %0, i32 noundef %5)
  %10 = tail call i32 @call_data_dissector(ptr noundef %9, ptr noundef %1, ptr noundef %2)
  br label %11

11:                                               ; preds = %8, %4
  %12 = tail call i32 @tvb_captured_length(ptr noundef %0)
  ret i32 %12
}